target datalayout = "e-m:e-p270:32:32-p271:32:32-p272:64:64-i64:64-i128:128-f80:128-n8:16:32:64-S128"
target triple = "x86_64-pc-linux-gnu"

%struct.rb_data_type_struct = type { ptr, %struct.anon.14, ptr, ptr, i64 }
%struct.anon.14 = type { ptr, ptr, ptr, ptr, [1 x ptr] }
%struct.RTypedData = type { %struct.RBasic, ptr, i64, ptr }
%struct.RBasic = type { i64, i64 }
%struct.METHOD = type { i64, i64, i64, i64, ptr }
%struct.rb_method_entry_struct = type { i64, i64, ptr, i64, i64 }

@method_data_type = internal constant %struct.rb_data_type_struct { ptr @.str.53, %struct.anon.14 { ptr @bm_mark_and_move, ptr inttoptr (i64 -1 to ptr), ptr null, ptr @bm_mark_and_move, [1 x ptr] zeroinitializer }, ptr null, ptr null, i64 35 }, align 8
@rb_cFalseClass = external global i64, align 8
@rb_cNilClass = external global i64, align 8
@rb_cTrueClass = external global i64, align 8
@rb_cInteger = external global i64, align 8
@rb_cSymbol = external global i64, align 8
@rb_cFloat = external global i64, align 8

; Function Attrs: inlinehint nounwind sspstrong willreturn memory(none) uwtable
define internal zeroext i1 @RB_IMMEDIATE_P(i64 noundef %0) #12 {
  %2 = alloca i64, align 8
  store i64 %0, ptr %2, align 8, !tbaa !7
  %3 = load i64, ptr %2, align 8, !tbaa !7
  %4 = and i64 %3, 7
  %5 = icmp ne i64 %4, 0
  ret i1 %5
}

; Function Attrs: inlinehint nounwind sspstrong uwtable
define internal zeroext i1 @RTYPEDDATA_EMBEDDED_P(i64 noundef %0) #3 {
  %2 = alloca i64, align 8
  store i64 %0, ptr %2, align 8, !tbaa !7
  %3 = load i64, ptr %2, align 8, !tbaa !7
  %4 = inttoptr i64 %3 to ptr
  %5 = getelementptr inbounds nuw %struct.RTypedData, ptr %4, i32 0, i32 2
  %6 = load i64, ptr %5, align 8, !tbaa !141
  %7 = and i64 %6, 2
  %8 = icmp ne i64 %7, 0
  ret i1 %8
}

; Function Attrs: inlinehint nounwind sspstrong willreturn memory(none) uwtable
define internal zeroext i1 @RB_FLONUM_P(i64 noundef %0) #12 {
  %2 = alloca i64, align 8
  store i64 %0, ptr %2, align 8, !tbaa !7
  %3 = load i64, ptr %2, align 8, !tbaa !7
  %4 = and i64 %3, 3
  %5 = icmp eq i64 %4, 2
  ret i1 %5
}

; Function Attrs: inlinehint nounwind sspstrong willreturn memory(none) uwtable
define internal zeroext i1 @RB_STATIC_SYM_P(i64 noundef %0) #12 {
  %2 = alloca i64, align 8
  %3 = alloca i64, align 8
  store i64 %0, ptr %2, align 8, !tbaa !7
  call void @llvm.lifetime.start.p0(i64 8, ptr %3) #25
  store i64 255, ptr %3, align 8, !tbaa !7
  %4 = load i64, ptr %2, align 8, !tbaa !7
  %5 = and i64 %4, 255
  %6 = icmp eq i64 %5, 12
  call void @llvm.lifetime.end.p0(i64 8, ptr %3) #25
  ret i1 %6
}

; Function Attrs: inlinehint nounwind sspstrong willreturn memory(none) uwtable
define internal zeroext i1 @RB_FIXNUM_P(i64 noundef %0) #12 {
  %2 = alloca i64, align 8
  store i64 %0, ptr %2, align 8, !tbaa !7
  %3 = load i64, ptr %2, align 8, !tbaa !7
  %4 = and i64 %3, 1
  %5 = icmp ne i64 %4, 0
  ret i1 %5
}

; Function Attrs: inlinehint nounwind sspstrong willreturn memory(read) uwtable
define internal i64 @RBASIC_CLASS(i64 noundef %0) #7 {
  %2 = alloca i64, align 8
  store i64 %0, ptr %2, align 8, !tbaa !7
  %3 = load i64, ptr %2, align 8, !tbaa !7
  %4 = inttoptr i64 %3 to ptr
  %5 = getelementptr inbounds nuw %struct.RBasic, ptr %4, i32 0, i32 1
  %6 = load i64, ptr %5, align 8, !tbaa !101
  ret i64 %6
}

; Function Attrs: inlinehint nounwind sspstrong willreturn memory(none) uwtable
define internal zeroext i1 @RB_SPECIAL_CONST_P(i64 noundef %0) #12 {
  %2 = alloca i64, align 8
  store i64 %0, ptr %2, align 8, !tbaa !7
  %3 = load i64, ptr %2, align 8, !tbaa !7
  %4 = icmp eq i64 %3, 0
  br i1 %4, label %8, label %5

5:                                                ; preds = %1
  %6 = load i64, ptr %2, align 8, !tbaa !7
  %7 = call zeroext i1 @RB_IMMEDIATE_P(i64 noundef %6) #29
  br label %8

8:                                                ; preds = %5, %1
  %9 = phi i1 [ true, %1 ], [ %7, %5 ]
  ret i1 %9
}

; Function Attrs: inlinehint nounwind sspstrong uwtable
define internal i64 @method_entry_defined_class(ptr noundef %0) #3 {
  %2 = alloca ptr, align 8
  %3 = alloca i64, align 8
  store ptr %0, ptr %2, align 8, !tbaa !108
  call void @llvm.lifetime.start.p0(i64 8, ptr %3) #25
  %4 = load ptr, ptr %2, align 8, !tbaa !108
  %5 = getelementptr inbounds nuw %struct.rb_method_entry_struct, ptr %4, i32 0, i32 1
  %6 = load i64, ptr %5, align 8, !tbaa !127
  store i64 %6, ptr %3, align 8, !tbaa !7
  %7 = load i64, ptr %3, align 8, !tbaa !7
  %8 = icmp ne i64 %7, 0
  br i1 %8, label %9, label %11

9:                                                ; preds = %1
  %10 = load i64, ptr %3, align 8, !tbaa !7
  br label %15

11:                                               ; preds = %1
  %12 = load ptr, ptr %2, align 8, !tbaa !108
  %13 = getelementptr inbounds nuw %struct.rb_method_entry_struct, ptr %12, i32 0, i32 4
  %14 = load i64, ptr %13, align 8, !tbaa !111
  br label %15

15:                                               ; preds = %11, %9
  %16 = phi i64 [ %10, %9 ], [ %14, %11 ]
  call void @llvm.lifetime.end.p0(i64 8, ptr %3) #25
  ret i64 %16
}

; Function Attrs: inlinehint nounwind sspstrong uwtable
define internal ptr @RTYPEDDATA_GET_DATA(i64 noundef %0) #3 {
  %2 = alloca i64, align 8
  %3 = alloca i64, align 8
  store i64 %0, ptr %2, align 8, !tbaa !7
  call void @llvm.lifetime.start.p0(i64 8, ptr %3) #25
  store i64 32, ptr %3, align 8, !tbaa !7
  %4 = load i64, ptr %2, align 8, !tbaa !7
  %5 = call zeroext i1 @RTYPEDDATA_EMBEDDED_P(i64 noundef %4)
  br i1 %5, label %6, label %10

6:                                                ; preds = %1
  %7 = load i64, ptr %2, align 8, !tbaa !7
  %8 = inttoptr i64 %7 to ptr
  %9 = getelementptr i8, ptr %8, i64 32
  br label %15

10:                                               ; preds = %1
  %11 = load i64, ptr %2, align 8, !tbaa !7
  %12 = inttoptr i64 %11 to ptr
  %13 = getelementptr inbounds nuw %struct.RTypedData, ptr %12, i32 0, i32 3
  %14 = load ptr, ptr %13, align 8, !tbaa !13
  br label %15

15:                                               ; preds = %10, %6
  %16 = phi ptr [ %9, %6 ], [ %14, %10 ]
  call void @llvm.lifetime.end.p0(i64 8, ptr %3) #25
  ret ptr %16
}

; Function Attrs: inlinehint nounwind sspstrong willreturn memory(read) uwtable
define internal i64 @rb_class_of(i64 noundef %0) #7 {
  %2 = alloca i64, align 8
  %3 = alloca i64, align 8
  store i64 %0, ptr %3, align 8, !tbaa !7
  %4 = load i64, ptr %3, align 8, !tbaa !7
  %5 = call zeroext i1 @RB_SPECIAL_CONST_P(i64 noundef %4) #29
  br i1 %5, label %9, label %6

6:                                                ; preds = %1
  %7 = load i64, ptr %3, align 8, !tbaa !7
  %8 = call i64 @RBASIC_CLASS(i64 noundef %7) #28
  store i64 %8, ptr %2, align 8
  br label %46

9:                                                ; preds = %1
  %10 = load i64, ptr %3, align 8, !tbaa !7
  %11 = icmp eq i64 %10, 0
  br i1 %11, label %12, label %14

12:                                               ; preds = %9
  %13 = load i64, ptr @rb_cFalseClass, align 8, !tbaa !7
  store i64 %13, ptr %2, align 8
  br label %46

14:                                               ; preds = %9
  %15 = load i64, ptr %3, align 8, !tbaa !7
  %16 = icmp eq i64 %15, 4
  br i1 %16, label %17, label %19

17:                                               ; preds = %14
  %18 = load i64, ptr @rb_cNilClass, align 8, !tbaa !7
  store i64 %18, ptr %2, align 8
  br label %46

19:                                               ; preds = %14
  %20 = load i64, ptr %3, align 8, !tbaa !7
  %21 = icmp eq i64 %20, 20
  br i1 %21, label %22, label %24

22:                                               ; preds = %19
  %23 = load i64, ptr @rb_cTrueClass, align 8, !tbaa !7
  store i64 %23, ptr %2, align 8
  br label %46

24:                                               ; preds = %19
  %25 = load i64, ptr %3, align 8, !tbaa !7
  %26 = call zeroext i1 @RB_FIXNUM_P(i64 noundef %25) #29
  br i1 %26, label %27, label %29

27:                                               ; preds = %24
  %28 = load i64, ptr @rb_cInteger, align 8, !tbaa !7
  store i64 %28, ptr %2, align 8
  br label %46

29:                                               ; preds = %24
  %30 = load i64, ptr %3, align 8, !tbaa !7
  %31 = call zeroext i1 @RB_STATIC_SYM_P(i64 noundef %30) #29
  br i1 %31, label %32, label %34

32:                                               ; preds = %29
  %33 = load i64, ptr @rb_cSymbol, align 8, !tbaa !7
  store i64 %33, ptr %2, align 8
  br label %46

34:                                               ; preds = %29
  %35 = load i64, ptr %3, align 8, !tbaa !7
  %36 = call zeroext i1 @RB_FLONUM_P(i64 noundef %35) #29
  br i1 %36, label %37, label %39

37:                                               ; preds = %34
  %38 = load i64, ptr @rb_cFloat, align 8, !tbaa !7
  store i64 %38, ptr %2, align 8
  br label %46

39:                                               ; preds = %34
  br label %40

40:                                               ; preds = %39
  br label %41

41:                                               ; preds = %40
  br label %42

42:                                               ; preds = %41
  br label %43

43:                                               ; preds = %42
  br label %44

44:                                               ; preds = %43
  br label %45

45:                                               ; preds = %44
  unreachable

46:                                               ; preds = %37, %32, %27, %22, %17, %12, %6
  %47 = load i64, ptr %2, align 8
  ret i64 %47
}

; Function Attrs: nounwind sspstrong uwtable
define dso_local i64 @rb_obj_is_method(i64 noundef %0) #0 {
  %2 = alloca i64, align 8
  store i64 %0, ptr %2, align 8, !tbaa !7
  %3 = load i64, ptr %2, align 8, !tbaa !7
  %4 = call i32 @rb_typeddata_is_kind_of(i64 noundef %3, ptr noundef @method_data_type)
  %5 = icmp ne i32 %4, 0
  %6 = select i1 %5, i64 20, i64 0
  ret i64 %6
}

; Function Attrs: nounwind sspstrong uwtable
define internal i64 @method_eq(i64 noundef %0, i64 noundef %1) #0 {
  %3 = alloca i64, align 8
  %4 = alloca i64, align 8
  %5 = alloca i64, align 8
  %6 = alloca ptr, align 8
  %7 = alloca ptr, align 8
  %8 = alloca i64, align 8
  %9 = alloca i64, align 8
  %10 = alloca i32, align 4
  store i64 %0, ptr %4, align 8, !tbaa !7
  store i64 %1, ptr %5, align 8, !tbaa !7
  call void @llvm.lifetime.start.p0(i64 8, ptr %6) #25
  call void @llvm.lifetime.start.p0(i64 8, ptr %7) #25
  call void @llvm.lifetime.start.p0(i64 8, ptr %8) #25
  call void @llvm.lifetime.start.p0(i64 8, ptr %9) #25
  %11 = load i64, ptr %5, align 8, !tbaa !7
  %12 = call i64 @rb_obj_is_method(i64 noundef %11)
  %13 = icmp ne i64 %12, 0
  br i1 %13, label %15, label %14

14:                                               ; preds = %2
  store i64 0, ptr %3, align 8
  store i32 1, ptr %10, align 4
  br label %67

15:                                               ; preds = %2
  %16 = load i64, ptr %4, align 8, !tbaa !7
  %17 = call i64 @rb_class_of(i64 noundef %16) #28
  %18 = load i64, ptr %5, align 8, !tbaa !7
  %19 = call i64 @rb_class_of(i64 noundef %18) #28
  %20 = icmp ne i64 %17, %19
  br i1 %20, label %21, label %22

21:                                               ; preds = %15
  store i64 0, ptr %3, align 8
  store i32 1, ptr %10, align 4
  br label %67

22:                                               ; preds = %15
  %23 = load i64, ptr %4, align 8, !tbaa !7
  %24 = call ptr @rb_check_typeddata(i64 noundef %23, ptr noundef @method_data_type)
  %25 = load i64, ptr %4, align 8, !tbaa !7
  %26 = call ptr @RTYPEDDATA_GET_DATA(i64 noundef %25)
  store ptr %26, ptr %6, align 8, !tbaa !95
  %27 = load i64, ptr %5, align 8, !tbaa !7
  %28 = call ptr @RTYPEDDATA_GET_DATA(i64 noundef %27)
  store ptr %28, ptr %7, align 8, !tbaa !95
  %29 = load ptr, ptr %6, align 8, !tbaa !95
  %30 = getelementptr inbounds nuw %struct.METHOD, ptr %29, i32 0, i32 4
  %31 = load ptr, ptr %30, align 8, !tbaa !104
  %32 = call i64 @method_entry_defined_class(ptr noundef %31)
  store i64 %32, ptr %8, align 8, !tbaa !7
  %33 = load ptr, ptr %7, align 8, !tbaa !95
  %34 = getelementptr inbounds nuw %struct.METHOD, ptr %33, i32 0, i32 4
  %35 = load ptr, ptr %34, align 8, !tbaa !104
  %36 = call i64 @method_entry_defined_class(ptr noundef %35)
  store i64 %36, ptr %9, align 8, !tbaa !7
  %37 = load ptr, ptr %6, align 8, !tbaa !95
  %38 = getelementptr inbounds nuw %struct.METHOD, ptr %37, i32 0, i32 4
  %39 = load ptr, ptr %38, align 8, !tbaa !104
  %40 = load ptr, ptr %7, align 8, !tbaa !95
  %41 = getelementptr inbounds nuw %struct.METHOD, ptr %40, i32 0, i32 4
  %42 = load ptr, ptr %41, align 8, !tbaa !104
  %43 = call i32 @rb_method_entry_eq(ptr noundef %39, ptr noundef %42)
  %44 = icmp ne i32 %43, 0
  br i1 %44, label %45, label %65

45:                                               ; preds = %22
  %46 = load i64, ptr %8, align 8, !tbaa !7
  %47 = load i64, ptr %9, align 8, !tbaa !7
  %48 = icmp ne i64 %46, %47
  br i1 %48, label %65, label %49

49:                                               ; preds = %45
  %50 = load ptr, ptr %6, align 8, !tbaa !95
  %51 = getelementptr inbounds nuw %struct.METHOD, ptr %50, i32 0, i32 1
  %52 = load i64, ptr %51, align 8, !tbaa !123
  %53 = load ptr, ptr %7, align 8, !tbaa !95
  %54 = getelementptr inbounds nuw %struct.METHOD, ptr %53, i32 0, i32 1
  %55 = load i64, ptr %54, align 8, !tbaa !123
  %56 = icmp ne i64 %52, %55
  br i1 %56, label %65, label %57

57:                                               ; preds = %49
  %58 = load ptr, ptr %6, align 8, !tbaa !95
  %59 = getelementptr inbounds nuw %struct.METHOD, ptr %58, i32 0, i32 0
  %60 = load i64, ptr %59, align 8, !tbaa !103
  %61 = load ptr, ptr %7, align 8, !tbaa !95
  %62 = getelementptr inbounds nuw %struct.METHOD, ptr %61, i32 0, i32 0
  %63 = load i64, ptr %62, align 8, !tbaa !103
  %64 = icmp ne i64 %60, %63
  br i1 %64, label %65, label %66

65:                                               ; preds = %57, %49, %45, %22
  store i64 0, ptr %3, align 8
  store i32 1, ptr %10, align 4
  br label %67

66:                                               ; preds = %57
  store i64 20, ptr %3, align 8
  store i32 1, ptr %10, align 4
  br label %67

67:                                               ; preds = %66, %65, %21, %14
  call void @llvm.lifetime.end.p0(i64 8, ptr %9) #25
  call void @llvm.lifetime.end.p0(i64 8, ptr %8) #25
  call void @llvm.lifetime.end.p0(i64 8, ptr %7) #25
  call void @llvm.lifetime.end.p0(i64 8, ptr %6) #25
  %68 = load i64, ptr %3, align 8
  ret i64 %68
}