; Function Attrs: nounwind sspstrong uwtable
define internal range(i64 0, 21) i64 @method_eq(i64 noundef %0, i64 noundef %1) #0 {
  %3 = tail call i32 @rb_typeddata_is_kind_of(i64 noundef %1, ptr noundef nonnull @method_data_type) #21
  %.not.i = icmp eq i32 %3, 0
  br i1 %.not.i, label %78, label %4

4:                                                ; preds = %2
  %5 = icmp eq i64 %0, 0
  %6 = and i64 %0, 7
  %7 = icmp ne i64 %6, 0
  %8 = or i1 %5, %7
  br i1 %8, label %12, label %9

9:                                                ; preds = %4
  %10 = inttoptr i64 %0 to ptr
  %11 = getelementptr inbounds nuw i8, ptr %10, i64 8
  br label %rb_class_of.exit

12:                                               ; preds = %4
  switch i64 %0, label %15 [
    i64 0, label %rb_class_of.exit
    i64 4, label %13
    i64 20, label %14
  ]

13:                                               ; preds = %12
  br label %rb_class_of.exit

14:                                               ; preds = %12
  br label %rb_class_of.exit

15:                                               ; preds = %12
  %16 = and i64 %0, 1
  %.not.i21 = icmp eq i64 %16, 0
  br i1 %.not.i21, label %17, label %rb_class_of.exit

17:                                               ; preds = %15
  %18 = and i64 %0, 254
  %19 = icmp eq i64 %18, 12
  %spec.select.i = select i1 %19, ptr @rb_cSymbol, ptr @rb_cFloat
  br label %rb_class_of.exit

rb_class_of.exit:                                 ; preds = %9, %12, %13, %14, %15, %17
  %.0.in.i = phi ptr [ @rb_cNilClass, %13 ], [ @rb_cTrueClass, %14 ], [ %11, %9 ], [ @rb_cFalseClass, %12 ], [ @rb_cInteger, %15 ], [ %spec.select.i, %17 ]
  %.0.i = load i64, ptr %.0.in.i, align 8, !tbaa !36
  %20 = icmp eq i64 %1, 0
  %21 = and i64 %1, 7
  %22 = icmp ne i64 %21, 0
  %23 = or i1 %20, %22
  br i1 %23, label %27, label %24

24:                                               ; preds = %rb_class_of.exit
  %25 = inttoptr i64 %1 to ptr
  %26 = getelementptr inbounds nuw i8, ptr %25, i64 8
  br label %rb_class_of.exit26

27:                                               ; preds = %rb_class_of.exit
  switch i64 %1, label %30 [
    i64 0, label %rb_class_of.exit26
    i64 4, label %28
    i64 20, label %29
  ]

28:                                               ; preds = %27
  br label %rb_class_of.exit26

29:                                               ; preds = %27
  br label %rb_class_of.exit26

30:                                               ; preds = %27
  %31 = and i64 %1, 1
  %.not.i24 = icmp eq i64 %31, 0
  br i1 %.not.i24, label %32, label %rb_class_of.exit26

32:                                               ; preds = %30
  %33 = and i64 %1, 254
  %34 = icmp eq i64 %33, 12
  %spec.select.i25 = select i1 %34, ptr @rb_cSymbol, ptr @rb_cFloat
  br label %rb_class_of.exit26

rb_class_of.exit26:                               ; preds = %24, %27, %28, %29, %30, %32
  %.0.in.i22 = phi ptr [ @rb_cNilClass, %28 ], [ @rb_cTrueClass, %29 ], [ %26, %24 ], [ @rb_cFalseClass, %27 ], [ @rb_cInteger, %30 ], [ %spec.select.i25, %32 ]
  %.0.i23 = load i64, ptr %.0.in.i22, align 8, !tbaa !36
  %.not16 = icmp eq i64 %.0.i, %.0.i23
  br i1 %.not16, label %35, label %78

35:                                               ; preds = %rb_class_of.exit26
  %36 = tail call ptr @rb_check_typeddata(i64 noundef %0, ptr noundef nonnull @method_data_type) #21
  %37 = inttoptr i64 %0 to ptr
  %38 = getelementptr inbounds nuw i8, ptr %37, i64 24
  %39 = load i64, ptr %38, align 8, !tbaa !31
  %40 = and i64 %39, 2
  %.not.i27 = icmp eq i64 %40, 0
  %41 = getelementptr i8, ptr %37, i64 32
  br i1 %.not.i27, label %42, label %RTYPEDDATA_GET_DATA.exit

42:                                               ; preds = %35
  %43 = load ptr, ptr %41, align 8, !tbaa !34
  br label %RTYPEDDATA_GET_DATA.exit

RTYPEDDATA_GET_DATA.exit:                         ; preds = %35, %42
  %44 = phi ptr [ %43, %42 ], [ %41, %35 ]
  %45 = inttoptr i64 %1 to ptr
  %46 = getelementptr inbounds nuw i8, ptr %45, i64 24
  %47 = load i64, ptr %46, align 8, !tbaa !31
  %48 = and i64 %47, 2
  %.not.i28 = icmp eq i64 %48, 0
  %49 = getelementptr i8, ptr %45, i64 32
  br i1 %.not.i28, label %50, label %RTYPEDDATA_GET_DATA.exit29

50:                                               ; preds = %RTYPEDDATA_GET_DATA.exit
  %51 = load ptr, ptr %49, align 8, !tbaa !34
  br label %RTYPEDDATA_GET_DATA.exit29

RTYPEDDATA_GET_DATA.exit29:                       ; preds = %RTYPEDDATA_GET_DATA.exit, %50
  %52 = phi ptr [ %51, %50 ], [ %49, %RTYPEDDATA_GET_DATA.exit ]
  %53 = getelementptr inbounds nuw i8, ptr %44, i64 32
  %54 = load ptr, ptr %53, align 8, !tbaa !74
  %55 = getelementptr inbounds nuw i8, ptr %54, i64 8
  %56 = load i64, ptr %55, align 8, !tbaa !86
  %.not.i30 = icmp eq i64 %56, 0
  br i1 %.not.i30, label %57, label %method_entry_defined_class.exit

57:                                               ; preds = %RTYPEDDATA_GET_DATA.exit29
  %58 = getelementptr inbounds nuw i8, ptr %54, i64 32
  %59 = load i64, ptr %58, align 8, !tbaa !104
  br label %method_entry_defined_class.exit

method_entry_defined_class.exit:                  ; preds = %RTYPEDDATA_GET_DATA.exit29, %57
  %60 = phi i64 [ %59, %57 ], [ %56, %RTYPEDDATA_GET_DATA.exit29 ]
  %61 = getelementptr inbounds nuw i8, ptr %52, i64 32
  %62 = load ptr, ptr %61, align 8, !tbaa !74
  %63 = getelementptr inbounds nuw i8, ptr %62, i64 8
  %64 = load i64, ptr %63, align 8, !tbaa !86
  %.not.i31 = icmp eq i64 %64, 0
  br i1 %.not.i31, label %65, label %method_entry_defined_class.exit32

65:                                               ; preds = %method_entry_defined_class.exit
  %66 = getelementptr inbounds nuw i8, ptr %62, i64 32
  %67 = load i64, ptr %66, align 8, !tbaa !104
  br label %method_entry_defined_class.exit32

method_entry_defined_class.exit32:                ; preds = %method_entry_defined_class.exit, %65
  %68 = phi i64 [ %67, %65 ], [ %64, %method_entry_defined_class.exit ]
  %69 = tail call i32 @rb_method_entry_eq(ptr noundef nonnull %54, ptr noundef nonnull %62) #21
  %.not17 = icmp ne i32 %69, 0
  %.not18 = icmp eq i64 %60, %68
  %or.cond = select i1 %.not17, i1 %.not18, i1 false
  br i1 %or.cond, label %70, label %78

70:                                               ; preds = %method_entry_defined_class.exit32
  %71 = getelementptr inbounds nuw i8, ptr %44, i64 8
  %72 = load i64, ptr %71, align 8, !tbaa !122
  %73 = getelementptr inbounds nuw i8, ptr %52, i64 8
  %74 = load i64, ptr %73, align 8, !tbaa !122
  %.not19 = icmp eq i64 %72, %74
  br i1 %.not19, label %75, label %78

75:                                               ; preds = %70
  %76 = load i64, ptr %44, align 8, !tbaa !84
  %77 = load i64, ptr %52, align 8, !tbaa !84
  %.not20 = icmp eq i64 %76, %77
  %spec.select = select i1 %.not20, i64 20, i64 0
  br label %78

78:                                               ; preds = %75, %method_entry_defined_class.exit32, %70, %rb_class_of.exit26, %2
  %.0 = phi i64 [ 0, %2 ], [ 0, %rb_class_of.exit26 ], [ 0, %70 ], [ 0, %method_entry_defined_class.exit32 ], [ %spec.select, %75 ]
  ret i64 %.0
}